target datalayout = "e-m:e-p270:32:32-p271:32:32-p272:64:64-i64:64-i128:128-f80:128-n8:16:32:64-S128"
target triple = "x86_64-pc-linux-gnu"

%struct._object = type { %union.anon, ptr }
%union.anon = type { i64 }
%struct.BZ2Compressor = type { %struct._object, %struct.bz_stream, i32, ptr }
%struct.bz_stream = type { ptr, i32, i32, i32, ptr, i32, i32, i32, ptr, ptr, ptr, ptr }
%struct.Py_buffer = type { ptr, ptr, i64, i64, i32, i32, ptr, ptr, ptr, ptr, ptr }

@PyExc_ValueError = external global ptr, align 8
@.str.8 = private unnamed_addr constant [28 x i8] c"Compressor has been flushed\00", align 1

; Function Attrs: nounwind uwtable
define internal ptr @_bz2_BZ2Compressor_compress_impl(ptr noundef %0, ptr noundef %1) #0 {
  %3 = alloca ptr, align 8
  %4 = alloca ptr, align 8
  %5 = alloca ptr, align 8
  %6 = alloca ptr, align 8
  store ptr %0, ptr %3, align 8, !tbaa !8
  store ptr %1, ptr %4, align 8, !tbaa !8
  call void @llvm.lifetime.start.p0(i64 8, ptr %5) #7
  store ptr null, ptr %5, align 8, !tbaa !3
  br label %7

7:                                                ; preds = %2
  %8 = load ptr, ptr %3, align 8, !tbaa !8
  %9 = getelementptr inbounds nuw %struct.BZ2Compressor, ptr %8, i32 0, i32 3
  %10 = load ptr, ptr %9, align 8, !tbaa !18
  %11 = call i32 @PyThread_acquire_lock(ptr noundef %10, i32 noundef 0)
  %12 = icmp ne i32 %11, 0
  br i1 %12, label %20, label %13

13:                                               ; preds = %7
  call void @llvm.lifetime.start.p0(i64 8, ptr %6) #7
  %14 = call ptr @PyEval_SaveThread()
  store ptr %14, ptr %6, align 8, !tbaa !37
  %15 = load ptr, ptr %3, align 8, !tbaa !8
  %16 = getelementptr inbounds nuw %struct.BZ2Compressor, ptr %15, i32 0, i32 3
  %17 = load ptr, ptr %16, align 8, !tbaa !18
  %18 = call i32 @PyThread_acquire_lock(ptr noundef %17, i32 noundef 1)
  %19 = load ptr, ptr %6, align 8, !tbaa !37
  call void @PyEval_RestoreThread(ptr noundef %19)
  call void @llvm.lifetime.end.p0(i64 8, ptr %6) #7
  br label %20

20:                                               ; preds = %13, %7
  br label %21

21:                                               ; preds = %20
  br label %22

22:                                               ; preds = %21
  %23 = load ptr, ptr %3, align 8, !tbaa !8
  %24 = getelementptr inbounds nuw %struct.BZ2Compressor, ptr %23, i32 0, i32 2
  %25 = load i32, ptr %24, align 8, !tbaa !39
  %26 = icmp ne i32 %25, 0
  br i1 %26, label %27, label %29

27:                                               ; preds = %22
  %28 = load ptr, ptr @PyExc_ValueError, align 8, !tbaa !3
  call void @PyErr_SetString(ptr noundef %28, ptr noundef @.str.8)
  br label %38

29:                                               ; preds = %22
  %30 = load ptr, ptr %3, align 8, !tbaa !8
  %31 = load ptr, ptr %4, align 8, !tbaa !8
  %32 = getelementptr inbounds nuw %struct.Py_buffer, ptr %31, i32 0, i32 0
  %33 = load ptr, ptr %32, align 8, !tbaa !40
  %34 = load ptr, ptr %4, align 8, !tbaa !8
  %35 = getelementptr inbounds nuw %struct.Py_buffer, ptr %34, i32 0, i32 2
  %36 = load i64, ptr %35, align 8, !tbaa !41
  %37 = call ptr @compress(ptr noundef %30, ptr noundef %33, i64 noundef %36, i32 noundef 0)
  store ptr %37, ptr %5, align 8, !tbaa !3
  br label %38

38:                                               ; preds = %29, %27
  %39 = load ptr, ptr %3, align 8, !tbaa !8
  %40 = getelementptr inbounds nuw %struct.BZ2Compressor, ptr %39, i32 0, i32 3
  %41 = load ptr, ptr %40, align 8, !tbaa !18
  call void @PyThread_release_lock(ptr noundef %41)
  %42 = load ptr, ptr %5, align 8, !tbaa !3
  call void @llvm.lifetime.end.p0(i64 8, ptr %5) #7
  ret ptr %42
}

; Function Attrs: nounwind uwtable
define internal ptr @_bz2_BZ2Compressor_compress(ptr noundef %0, ptr noundef %1) #0 {
  %3 = alloca ptr, align 8
  %4 = alloca ptr, align 8
  %5 = alloca ptr, align 8
  %6 = alloca %struct.Py_buffer, align 8
  store ptr %0, ptr %3, align 8, !tbaa !3
  store ptr %1, ptr %4, align 8, !tbaa !3
  call void @llvm.lifetime.start.p0(i64 8, ptr %5) #7
  store ptr null, ptr %5, align 8, !tbaa !3
  call void @llvm.lifetime.start.p0(i64 80, ptr %6) #7
  call void @llvm.memset.p0.i64(ptr align 8 %6, i8 0, i64 80, i1 false)
  %7 = load ptr, ptr %4, align 8, !tbaa !3
  %8 = call i32 @PyObject_GetBuffer(ptr noundef %7, ptr noundef %6, i32 noundef 0)
  %9 = icmp ne i32 %8, 0
  br i1 %9, label %10, label %11

10:                                               ; preds = %2
  br label %14

11:                                               ; preds = %2
  %12 = load ptr, ptr %3, align 8, !tbaa !3
  %13 = call ptr @_bz2_BZ2Compressor_compress_impl(ptr noundef %12, ptr noundef %6)
  store ptr %13, ptr %5, align 8, !tbaa !3
  br label %14

14:                                               ; preds = %11, %10
  %15 = getelementptr inbounds nuw %struct.Py_buffer, ptr %6, i32 0, i32 1
  %16 = load ptr, ptr %15, align 8, !tbaa !34
  %17 = icmp ne ptr %16, null
  br i1 %17, label %18, label %19

18:                                               ; preds = %14
  call void @PyBuffer_Release(ptr noundef %6)
  br label %19

19:                                               ; preds = %18, %14
  %20 = load ptr, ptr %5, align 8, !tbaa !3
  call void @llvm.lifetime.end.p0(i64 80, ptr %6) #7
  call void @llvm.lifetime.end.p0(i64 8, ptr %5) #7
  ret ptr %20
}